target datalayout = "e-m:e-p270:32:32-p271:32:32-p272:64:64-i64:64-i128:128-f80:128-n8:16:32:64-S128"
target triple = "x86_64-pc-linux-gnu"

%struct.HWDevice = type { ptr, i32, ptr }

@nb_hw_devices = internal global i32 0, align 4
@hw_devices = internal global ptr null, align 8

; Function Attrs: nounwind uwtable
define void @hw_device_free_all() #0 {
  %1 = alloca i32, align 4
  call void @llvm.lifetime.start.p0(i64 4, ptr %1) #5
  store i32 0, ptr %1, align 4, !tbaa !4
  br label %2

2:                                                ; preds = %23, %0
  %3 = load i32, ptr %1, align 4, !tbaa !4
  %4 = load i32, ptr @nb_hw_devices, align 4, !tbaa !4
  %5 = icmp slt i32 %3, %4
  br i1 %5, label %6, label %26

6:                                                ; preds = %2
  %7 = load ptr, ptr @hw_devices, align 8, !tbaa !11
  %8 = load i32, ptr %1, align 4, !tbaa !4
  %9 = sext i32 %8 to i64
  %10 = getelementptr inbounds ptr, ptr %7, i64 %9
  %11 = load ptr, ptr %10, align 8, !tbaa !8
  %12 = getelementptr inbounds nuw %struct.HWDevice, ptr %11, i32 0, i32 0
  call void @av_freep(ptr noundef %12)
  %13 = load ptr, ptr @hw_devices, align 8, !tbaa !11
  %14 = load i32, ptr %1, align 4, !tbaa !4
  %15 = sext i32 %14 to i64
  %16 = getelementptr inbounds ptr, ptr %13, i64 %15
  %17 = load ptr, ptr %16, align 8, !tbaa !8
  %18 = getelementptr inbounds nuw %struct.HWDevice, ptr %17, i32 0, i32 2
  call void @av_buffer_unref(ptr noundef %18)
  %19 = load ptr, ptr @hw_devices, align 8, !tbaa !11
  %20 = load i32, ptr %1, align 4, !tbaa !4
  %21 = sext i32 %20 to i64
  %22 = getelementptr inbounds ptr, ptr %19, i64 %21
  call void @av_freep(ptr noundef %22)
  br label %23

23:                                               ; preds = %6
  %24 = load i32, ptr %1, align 4, !tbaa !4
  %25 = add nsw i32 %24, 1
  store i32 %25, ptr %1, align 4, !tbaa !4
  br label %2, !llvm.loop !31

26:                                               ; preds = %2
  call void @av_freep(ptr noundef @hw_devices)
  store i32 0, ptr @nb_hw_devices, align 4, !tbaa !4
  call void @llvm.lifetime.end.p0(i64 4, ptr %1) #5
  ret void
}