; Function Attrs: nounwind uwtable
define void @hw_device_free_all() local_unnamed_addr #4 {
  %1 = load i32, ptr @nb_hw_devices, align 4, !tbaa !4
  %2 = icmp sgt i32 %1, 0
  br i1 %2, label %.lr.ph, label %._crit_edge

.lr.ph:                                           ; preds = %0, %.lr.ph
  %indvars.iv = phi i64 [ %indvars.iv.next, %.lr.ph ], [ 0, %0 ]
  %3 = load ptr, ptr @hw_devices, align 8, !tbaa !8
  %4 = getelementptr inbounds nuw ptr, ptr %3, i64 %indvars.iv
  %5 = load ptr, ptr %4, align 8, !tbaa !12
  tail call void @av_freep(ptr noundef %5) #8
  %6 = load ptr, ptr @hw_devices, align 8, !tbaa !8
  %7 = getelementptr inbounds nuw ptr, ptr %6, i64 %indvars.iv
  %8 = load ptr, ptr %7, align 8, !tbaa !12
  %9 = getelementptr inbounds nuw i8, ptr %8, i64 16
  tail call void @av_buffer_unref(ptr noundef nonnull %9) #8
  %10 = load ptr, ptr @hw_devices, align 8, !tbaa !8
  %11 = getelementptr inbounds nuw ptr, ptr %10, i64 %indvars.iv
  tail call void @av_freep(ptr noundef %11) #8
  %indvars.iv.next = add nuw nsw i64 %indvars.iv, 1
  %12 = load i32, ptr @nb_hw_devices, align 4, !tbaa !4
  %13 = sext i32 %12 to i64
  %14 = icmp slt i64 %indvars.iv.next, %13
  br i1 %14, label %.lr.ph, label %._crit_edge, !llvm.loop !29

._crit_edge:                                      ; preds = %.lr.ph, %0
  tail call void @av_freep(ptr noundef nonnull @hw_devices) #8
  store i32 0, ptr @nb_hw_devices, align 4, !tbaa !4
  ret void
}